(lp0
(lp1
(I0
I1
tp2
a(I1
I1
tp3
a(I2
I1
tp4
a(I3
I1
tp5
aa(lp6
(I4
I1
tp7
a(I5
I1
tp8
a(I6
I1
tp9
a(I7
I1
tp10
a(I8
I1
tp11
a(I9
I1
tp12
aa(lp13
(I10
I1
tp14
a(I11
I1
tp15
a(I12
I1
tp16
a(I13
I1
tp17
a(I14
I1
tp18
a(I15
I1
tp19
a(I16
I1
tp20
a(I17
I1
tp21
a(I18
I1
tp22
aa(lp23
(I19
I1
tp24
a(I20
I1
tp25
a(I21
I1
tp26
a(I22
I1
tp27
a(I23
I1
tp28
a(I24
I1
tp29
a(I25
I1
tp30
a(I26
I1
tp31
a(I27
I1
tp32
aa(lp33
(I28
I1
tp34
a(I29
I1
tp35
a(I30
I1
tp36
a(I31
I1
tp37
a(I32
I1
tp38
aa(lp39
(I33
I1
tp40
a(I34
I1
tp41
a(I35
I1
tp42
a(I36
I1
tp43
a(I37
I1
tp44
a(I38
I1
tp45
aa(lp46
(I39
I1
tp47
a(I40
I1
tp48
aa(lp49
(I41
I1
tp50
a(I42
I1
tp51
a(I43
I1
tp52
aa(lp53
(I44
I1
tp54
a(I45
I1
tp55
a(I46
I1
tp56
a(I47
I1
tp57
a(I48
I1
tp58
a(I49
I1
tp59
a(I50
I1
tp60
a(I51
I1
tp61
aa(lp62
(I28
I1
tp63
a(I52
I1
tp64
a(I53
I1
tp65
a(I54
I1
tp66
a(I55
I1
tp67
a(I56
I1
tp68
aa(lp69
(I6
I1
tp70
a(I35
I1
tp71
a(I51
I1
tp72
a(I57
I1
tp73
a(I58
I1
tp74
a(I59
I1
tp75
a(I60
I1
tp76
a(I61
I1
tp77
a(I62
I2
tp78
a(I63
I1
tp79
aa(lp80
(I64
I1
tp81
a(I65
I1
tp82
a(I66
I1
tp83
a(I67
I1
tp84
a(I68
I1
tp85
aa(lp86
(I35
I1
tp87
a(I69
I1
tp88
a(I70
I1
tp89
a(I71
I1
tp90
a(I72
I1
tp91
a(I73
I1
tp92
aa(lp93
(I74
I1
tp94
a(I75
I1
tp95
a(I76
I1
tp96
a(I77
I1
tp97
a(I78
I1
tp98
aa(lp99
(I45
I1
tp100
a(I79
I1
tp101
a(I80
I1
tp102
a(I81
I1
tp103
aa(lp104
(I82
I1
tp105
a(I83
I1
tp106
a(I84
I1
tp107
a(I85
I1
tp108
aa(lp109
(I32
I1
tp110
a(I86
I1
tp111
a(I87
I1
tp112
a(I88
I1
tp113
a(I89
I1
tp114
a(I90
I1
tp115
aa(lp116
(I32
I1
tp117
a(I91
I1
tp118
a(I92
I1
tp119
a(I93
I1
tp120
a(I94
I1
tp121
a(I95
I1
tp122
a(I96
I1
tp123
a(I97
I1
tp124
a(I98
I1
tp125
a(I99
I1
tp126
aa(lp127
(I57
I1
tp128
a(I100
I1
tp129
a(I101
I1
tp130
a(I102
I1
tp131
a(I103
I1
tp132
a(I104
I1
tp133
aa(lp134
(I32
I1
tp135
a(I105
I1
tp136
a(I106
I1
tp137
a(I107
I1
tp138
a(I108
I1
tp139
a(I109
I1
tp140
a(I110
I1
tp141
aa(lp142
(I6
I1
tp143
a(I111
I1
tp144
a(I112
I1
tp145
a(I113
I1
tp146
a(I114
I1
tp147
aa(lp148
(I51
I1
tp149
a(I114
I1
tp150
a(I115
I1
tp151
a(I116
I1
tp152
a(I117
I1
tp153
a(I118
I1
tp154
a(I119
I1
tp155
a(I120
I1
tp156
a(I121
I1
tp157
a(I122
I1
tp158
aa(lp159
(I35
I1
tp160
a(I103
I1
tp161
a(I123
I1
tp162
a(I124
I1
tp163
a(I125
I1
tp164
aa.